Certificate:
    Data:
        Version: 3 (0x2)
        Serial Number: 3 (0x3)
    Signature Algorithm: sha256WithRSAEncryption
        Issuer: CN=K0
        Validity
            Not Before: Jul 22 13:34:21 2015 GMT
            Not After : Jul 22 13:34:21 2112 GMT
        Subject: CN=GenericServerKey
        Subject Public Key Info:
            Public Key Algorithm: rsaEncryption
                Public-Key: (1024 bit)
                Modulus:
                    00:a1:de:25:95:63:71:7d:d8:9a:92:cd:9b:e6:73:
                    13:6c:17:58:35:ec:9b:e2:0b:9e:75:04:ac:9a:01:
                    92:59:33:62:08:32:2b:f1:df:62:de:df:09:62:14:
                    23:49:e0:fb:7c:23:50:b6:53:7a:1e:ef:e4:2a:6e:
                    c3:a0:3c:83:a4:70:8b:77:e8:86:df:05:c7:eb:b6:
                    94:35:30:fd:1a:3c:89:f8:e8:f8:89:6e:e0:d4:54:
                    c4:23:7d:30:c0:df:34:51:0d:2c:db:b2:1b:6d:f0:
                    0d:83:ea:fa:62:5f:d5:51:c5:4e:8b:55:5d:29:1d:
                    d0:1b:fa:14:82:94:27:6c:73
                Exponent: 65537 (0x10001)
        X509v3 extensions:
            X509v3 Basic Constraints: 
                CA:FALSE
            Netscape Comment: 
                OpenSSL Generated Certificate
            X509v3 Subject Key Identifier: 
                6D:95:C4:DE:99:63:EA:DB:63:AA:2D:15:69:A3:84:AC:5D:2C:4C:A1
            X509v3 Authority Key Identifier: 
                keyid:5A:B4:BA:A9:4F:B6:AE:C4:75:9C:06:C2:84:7D:71:B1:20:87:9E:27

    Signature Algorithm: sha256WithRSAEncryption
         81:96:4b:bd:6f:91:e7:fa:31:43:74:d8:ef:51:be:95:92:87:
         6c:51:c4:87:f8:c8:df:ae:9f:55:87:6b:87:68:0e:91:f1:5e:
         ab:37:8e:22:d7:10:6f:94:79:7d:4c:4f:5a:9e:ae:ba:1c:2f:
         fe:36:04:b1:70:4f:4d:01:3b:c9:a5:8e:92:ac:01:a0:37:e7:
         57:d1:68:af:9a:fa:2e:87:60:e0:48:34:4f:81:e7:5a:ce:60:
         8c:96:c9:06:64:47:d6:fa:8b:cf:1c:f0:82:fc:50:fd:7f:cf:
         3b:a3:77:7e:10:eb:b1:3e:b5:b3:cf:17:0c:0d:47:9d:9c:4f:
         ef:f6
-----BEGIN CERTIFICATE-----
MIICGzCCAYSgAwIBAgIBAzANBgkqhkiG9w0BAQsFADANMQswCQYDVQQDDAJLMDAg
Fw0xNTA3MjIxMzM0MjFaGA8yMTEyMDcyMjEzMzQyMVowGzEZMBcGA1UEAwwQR2Vu
ZXJpY1NlcnZlcktleTCBnzANBgkqhkiG9w0BAQEFAAOBjQAwgYkCgYEAod4llWNx
fdiaks2b5nMTbBdYNeyb4guedQSsmgGSWTNiCDIr8d9i3t8JYhQjSeD7fCNQtlN6
Hu/kKm7DoDyDpHCLd+iG3wXH67aUNTD9GjyJ+Oj4iW7g1FTEI30wwN80UQ0s27Ib
bfANg+r6Yl/VUcVOi1VdKR3QG/oUgpQnbHMCAwEAAaN7MHkwCQYDVR0TBAIwADAs
BglghkgBhvhCAQ0EHxYdT3BlblNTTCBHZW5lcmF0ZWQgQ2VydGlmaWNhdGUwHQYD
VR0OBBYEFG2VxN6ZY+rbY6otFWmjhKxdLEyhMB8GA1UdIwQYMBaAFFq0uqlPtq7E
dZwGwoR9cbEgh54nMA0GCSqGSIb3DQEBCwUAA4GBAIGWS71vkef6MUN02O9RvpWS
h2xRxIf4yN+un1WHa4doDpHxXqs3jiLXEG+UeX1MT1qerrocL/42BLFwT00BO8ml
jpKsAaA351fRaK+a+i6HYOBINE+B51rOYIyWyQZkR9b6i88c8IL8UP1/zzujd34Q
67E+tbPPFwwNR52cT+/2
-----END CERTIFICATE-----
