Certificate:
    Data:
        Version: 3 (0x2)
        Serial Number: 7 (0x7)
    Signature Algorithm: sha256WithRSAEncryption
        Issuer: CN=K0
        Validity
            Not Before: Aug 13 10:47:53 2015 GMT
            Not After : Aug 14 10:47:53 2115 GMT
        Subject: C=FR, ST=France, O=Elipce, OU=Elipce Informatique, CN=85.14.137.12
        Subject Public Key Info:
            Public Key Algorithm: rsaEncryption
                Public-Key: (1024 bit)
                Modulus:
                    00:dd:dc:5b:46:a5:d2:be:44:37:5c:3b:20:0b:4e:
                    43:d7:6f:c6:99:be:79:33:2e:c7:2a:0d:0c:10:9d:
                    cd:8e:e7:4f:05:3a:44:fd:ab:41:07:c7:ec:1a:f5:
                    a2:10:6f:41:15:79:dc:b7:30:d0:91:ba:18:02:71:
                    ea:e0:5b:2f:c0:83:fa:b3:a4:52:c4:e2:fa:6e:99:
                    80:5f:0a:59:e5:00:c0:57:41:fd:f3:82:05:95:16:
                    60:72:56:8c:a4:9d:20:3b:52:34:98:0d:57:ce:a0:
                    2f:86:b9:78:5e:ed:60:b9:cf:80:29:28:59:87:6a:
                    0d:ab:97:82:4a:67:b8:51:25
                Exponent: 65537 (0x10001)
        X509v3 extensions:
            X509v3 Basic Constraints: 
                CA:FALSE
            Netscape Comment: 
                OpenSSL Generated Certificate
            X509v3 Subject Key Identifier: 
                C7:CD:1B:36:64:AE:77:AB:33:1C:92:B3:07:A3:A9:4A:7E:83:18:2E
            X509v3 Authority Key Identifier: 
                keyid:5A:B4:BA:A9:4F:B6:AE:C4:75:9C:06:C2:84:7D:71:B1:20:87:9E:27

    Signature Algorithm: sha256WithRSAEncryption
         70:93:63:12:e5:5c:9e:a1:10:03:bc:36:d8:8b:f7:9c:bd:c0:
         b3:1c:d6:68:cb:f6:ab:aa:bc:35:90:c2:d8:73:44:1a:a4:57:
         bf:96:aa:be:2d:ad:7f:4c:83:64:23:be:37:97:56:b1:6d:fb:
         0c:ec:cc:00:6e:ab:76:45:93:c3:eb:66:2c:a5:dc:08:54:80:
         3c:37:b1:73:ef:bd:ac:07:99:d6:1b:1e:86:e3:55:c0:b4:ef:
         38:0f:45:e1:67:97:61:f1:56:93:26:c6:b4:5d:63:74:be:43:
         b7:67:1b:94:c5:0e:b7:71:42:58:a7:e6:92:a0:81:02:8a:0d:
         2f:c9
-----BEGIN CERTIFICATE-----
MIICZDCCAc2gAwIBAgIBBzANBgkqhkiG9w0BAQsFADANMQswCQYDVQQDDAJLMDAg
Fw0xNTA4MTMxMDQ3NTNaGA8yMTE1MDgxNDEwNDc1M1owZDELMAkGA1UEBhMCRlIx
DzANBgNVBAgMBkZyYW5jZTEPMA0GA1UECgwGRWxpcGNlMRwwGgYDVQQLDBNFbGlw
Y2UgSW5mb3JtYXRpcXVlMRUwEwYDVQQDDAw4NS4xNC4xMzcuMTIwgZ8wDQYJKoZI
hvcNAQEBBQADgY0AMIGJAoGBAN3cW0al0r5EN1w7IAtOQ9dvxpm+eTMuxyoNDBCd
zY7nTwU6RP2rQQfH7Br1ohBvQRV53Lcw0JG6GAJx6uBbL8CD+rOkUsTi+m6ZgF8K
WeUAwFdB/fOCBZUWYHJWjKSdIDtSNJgNV86gL4a5eF7tYLnPgCkoWYdqDauXgkpn
uFElAgMBAAGjezB5MAkGA1UdEwQCMAAwLAYJYIZIAYb4QgENBB8WHU9wZW5TU0wg
R2VuZXJhdGVkIENlcnRpZmljYXRlMB0GA1UdDgQWBBTHzRs2ZK53qzMckrMHo6lK
foMYLjAfBgNVHSMEGDAWgBRatLqpT7auxHWcBsKEfXGxIIeeJzANBgkqhkiG9w0B
AQsFAAOBgQBwk2MS5VyeoRADvDbYi/ecvcCzHNZoy/arqrw1kMLYc0QapFe/lqq+
La1/TINkI743l1axbfsM7MwAbqt2RZPD62YspdwIVIA8N7Fz772sB5nWGx6G41XA
tO84D0XhZ5dh8VaTJsa0XWN0vkO3ZxuUxQ63cUJYp+aSoIECig0vyQ==
-----END CERTIFICATE-----
